target datalayout = "e-m:e-p270:32:32-p271:32:32-p272:64:64-i64:64-i128:128-f80:128-n8:16:32:64-S128"
target triple = "x86_64-pc-linux-gnu"

%struct.gz_state = type { %struct.gzFile_s, i32, i32, ptr, i32, i32, ptr, ptr, i32, i32, i64, i32, i32, i32, i32, i32, i64, i32, i32, ptr, %struct.z_stream_s }
%struct.gzFile_s = type { i32, ptr, i64 }
%struct.z_stream_s = type { ptr, i32, i64, ptr, i32, i64, ptr, ptr, ptr, ptr, ptr, i32, i64, i64 }

; Function Attrs: nounwind uwtable
define i32 @gzdirect(ptr noundef %0) #0 {
  %2 = alloca i32, align 4
  %3 = alloca ptr, align 8
  %4 = alloca ptr, align 8
  %5 = alloca i32, align 4
  store ptr %0, ptr %3, align 8, !tbaa !3
  call void @llvm.lifetime.start.p0(i64 8, ptr %4) #8
  %6 = load ptr, ptr %3, align 8, !tbaa !3
  %7 = icmp eq ptr %6, null
  br i1 %7, label %8, label %9

8:                                                ; preds = %1
  store i32 0, ptr %2, align 4
  store i32 1, ptr %5, align 4
  br label %33

9:                                                ; preds = %1
  %10 = load ptr, ptr %3, align 8, !tbaa !3
  store ptr %10, ptr %4, align 8, !tbaa !8
  %11 = load ptr, ptr %4, align 8, !tbaa !8
  %12 = getelementptr inbounds nuw %struct.gz_state, ptr %11, i32 0, i32 1
  %13 = load i32, ptr %12, align 8, !tbaa !11
  %14 = icmp eq i32 %13, 7247
  br i1 %14, label %15, label %29

15:                                               ; preds = %9
  %16 = load ptr, ptr %4, align 8, !tbaa !8
  %17 = getelementptr inbounds nuw %struct.gz_state, ptr %16, i32 0, i32 9
  %18 = load i32, ptr %17, align 4, !tbaa !27
  %19 = icmp eq i32 %18, 0
  br i1 %19, label %20, label %29

20:                                               ; preds = %15
  %21 = load ptr, ptr %4, align 8, !tbaa !8
  %22 = getelementptr inbounds nuw %struct.gz_state, ptr %21, i32 0, i32 0
  %23 = getelementptr inbounds nuw %struct.gzFile_s, ptr %22, i32 0, i32 0
  %24 = load i32, ptr %23, align 8, !tbaa !22
  %25 = icmp eq i32 %24, 0
  br i1 %25, label %26, label %29

26:                                               ; preds = %20
  %27 = load ptr, ptr %4, align 8, !tbaa !8
  %28 = call i32 @gz_look(ptr noundef %27)
  br label %29

29:                                               ; preds = %26, %20, %15, %9
  %30 = load ptr, ptr %4, align 8, !tbaa !8
  %31 = getelementptr inbounds nuw %struct.gz_state, ptr %30, i32 0, i32 8
  %32 = load i32, ptr %31, align 8, !tbaa !48
  store i32 %32, ptr %2, align 4
  store i32 1, ptr %5, align 4
  br label %33

33:                                               ; preds = %29, %8
  call void @llvm.lifetime.end.p0(i64 8, ptr %4) #8
  %34 = load i32, ptr %2, align 4
  ret i32 %34
}