; Function Attrs: nounwind uwtable
define i32 @gzdirect(ptr noundef %0) local_unnamed_addr #0 {
  %2 = icmp eq ptr %0, null
  br i1 %2, label %19, label %3

3:                                                ; preds = %1
  %4 = getelementptr inbounds nuw i8, ptr %0, i64 24
  %5 = load i32, ptr %4, align 8, !tbaa !3
  %6 = icmp eq i32 %5, 7247
  br i1 %6, label %7, label %16

7:                                                ; preds = %3
  %8 = getelementptr inbounds nuw i8, ptr %0, i64 68
  %9 = load i32, ptr %8, align 4, !tbaa !25
  %10 = icmp eq i32 %9, 0
  br i1 %10, label %11, label %16

11:                                               ; preds = %7
  %12 = load i32, ptr %0, align 8, !tbaa !17
  %13 = icmp eq i32 %12, 0
  br i1 %13, label %14, label %16

14:                                               ; preds = %11
  %15 = tail call fastcc i32 @gz_look(ptr noundef %0)
  br label %16

16:                                               ; preds = %14, %11, %7, %3
  %17 = getelementptr inbounds nuw i8, ptr %0, i64 64
  %18 = load i32, ptr %17, align 8, !tbaa !41
  br label %19

19:                                               ; preds = %1, %16
  %.0 = phi i32 [ %18, %16 ], [ 0, %1 ]
  ret i32 %.0
}